; Function Attrs: mustprogress nofree norecurse nosync nounwind willreturn memory(read, inaccessiblemem: none) uwtable
define noundef zeroext i1 @_ZNK7rocksdb7blob_db18BlobFileComparatorclERKSt10shared_ptrINS0_8BlobFileEES6_(ptr nocapture noundef nonnull readnone align 1 dereferenceable(1) %this, ptr nocapture noundef nonnull readonly align 8 dereferenceable(16) %lhs, ptr nocapture noundef nonnull readonly align 8 dereferenceable(16) %rhs) local_unnamed_addr #2 align 2 {
entry:
  %0 = load ptr, ptr %lhs, align 8
  %file_number_.i = getelementptr inbounds i8, ptr %0, i64 40
  %1 = load i64, ptr %file_number_.i, align 8
  %2 = load ptr, ptr %rhs, align 8
  %file_number_.i1 = getelementptr inbounds i8, ptr %2, i64 40
  %3 = load i64, ptr %file_number_.i1, align 8
  %cmp = icmp ugt i64 %1, %3
  ret i1 %cmp
}